target datalayout = "e-m:e-p270:32:32-p271:32:32-p272:64:64-i64:64-i128:128-f80:128-n8:16:32:64-S128"
target triple = "x86_64-pc-linux-gnu"

%struct.fns = type { ptr, ptr }
%struct.vars = type { ptr, ptr, ptr, i32, i32, i32, i32, i32, i32, i32, ptr, i64, [10 x ptr], ptr, ptr, i16, ptr, ptr, ptr, ptr, i32, ptr, ptr, ptr, i32, i64 }
%struct.pg_regex_t = type { i32, i64, i64, i32, ptr, i32, ptr, ptr }
%struct.cnfa = type { i32, i32, i32, i32, i32, [2 x i16], [2 x i16], ptr, ptr, ptr, i32, i32 }
%struct.subre = type { i8, i8, i8, i32, i32, i32, i16, i16, ptr, ptr, ptr, ptr, %struct.cnfa, ptr }

; Function Attrs: nounwind uwtable
define internal ptr @subre(ptr noundef %0, i32 noundef %1, i32 noundef %2, ptr noundef %3, ptr noundef %4) #0 {
  %6 = alloca ptr, align 8
  %7 = alloca ptr, align 8
  %8 = alloca i32, align 4
  %9 = alloca i32, align 4
  %10 = alloca ptr, align 8
  %11 = alloca ptr, align 8
  %12 = alloca ptr, align 8
  %13 = alloca i32, align 4
  store ptr %0, ptr %7, align 8
  store i32 %1, ptr %8, align 4
  store i32 %2, ptr %9, align 4
  store ptr %3, ptr %10, align 8
  store ptr %4, ptr %11, align 8
  call void @llvm.lifetime.start.p0(i64 8, ptr %12) #12
  %14 = load ptr, ptr %7, align 8
  %15 = getelementptr inbounds nuw %struct.vars, ptr %14, i32 0, i32 19
  %16 = load ptr, ptr %15, align 8
  store ptr %16, ptr %12, align 8
  %17 = load ptr, ptr %7, align 8
  %18 = getelementptr inbounds nuw %struct.vars, ptr %17, i32 0, i32 0
  %19 = load ptr, ptr %18, align 8
  %20 = getelementptr inbounds nuw %struct.pg_regex_t, ptr %19, i32 0, i32 7
  %21 = load ptr, ptr %20, align 8
  %22 = getelementptr inbounds nuw %struct.fns, ptr %21, i32 0, i32 1
  %23 = load ptr, ptr %22, align 8
  %24 = call i32 %23()
  %25 = icmp ne i32 %24, 0
  br i1 %25, label %26, label %42

26:                                               ; preds = %5
  %27 = load ptr, ptr %7, align 8
  %28 = getelementptr inbounds nuw %struct.vars, ptr %27, i32 0, i32 6
  store i32 101, ptr %28, align 4
  %29 = load ptr, ptr %7, align 8
  %30 = getelementptr inbounds nuw %struct.vars, ptr %29, i32 0, i32 3
  %31 = load i32, ptr %30, align 8
  %32 = icmp ne i32 %31, 0
  br i1 %32, label %33, label %37

33:                                               ; preds = %26
  %34 = load ptr, ptr %7, align 8
  %35 = getelementptr inbounds nuw %struct.vars, ptr %34, i32 0, i32 3
  %36 = load i32, ptr %35, align 8
  br label %38

37:                                               ; preds = %26
  br label %38

38:                                               ; preds = %37, %33
  %39 = phi i32 [ %36, %33 ], [ 19, %37 ]
  %40 = load ptr, ptr %7, align 8
  %41 = getelementptr inbounds nuw %struct.vars, ptr %40, i32 0, i32 3
  store i32 %39, ptr %41, align 8
  store ptr null, ptr %6, align 8
  store i32 1, ptr %13, align 4
  br label %115

42:                                               ; preds = %5
  %43 = load ptr, ptr %12, align 8
  %44 = icmp ne ptr %43, null
  br i1 %44, label %45, label %51

45:                                               ; preds = %42
  %46 = load ptr, ptr %12, align 8
  %47 = getelementptr inbounds nuw %struct.subre, ptr %46, i32 0, i32 8
  %48 = load ptr, ptr %47, align 8
  %49 = load ptr, ptr %7, align 8
  %50 = getelementptr inbounds nuw %struct.vars, ptr %49, i32 0, i32 19
  store ptr %48, ptr %50, align 8
  br label %80

51:                                               ; preds = %42
  %52 = call ptr @palloc_extended(i64 noundef 128, i32 noundef 2)
  store ptr %52, ptr %12, align 8
  %53 = load ptr, ptr %12, align 8
  %54 = icmp eq ptr %53, null
  br i1 %54, label %55, label %71

55:                                               ; preds = %51
  %56 = load ptr, ptr %7, align 8
  %57 = getelementptr inbounds nuw %struct.vars, ptr %56, i32 0, i32 6
  store i32 101, ptr %57, align 4
  %58 = load ptr, ptr %7, align 8
  %59 = getelementptr inbounds nuw %struct.vars, ptr %58, i32 0, i32 3
  %60 = load i32, ptr %59, align 8
  %61 = icmp ne i32 %60, 0
  br i1 %61, label %62, label %66

62:                                               ; preds = %55
  %63 = load ptr, ptr %7, align 8
  %64 = getelementptr inbounds nuw %struct.vars, ptr %63, i32 0, i32 3
  %65 = load i32, ptr %64, align 8
  br label %67

66:                                               ; preds = %55
  br label %67

67:                                               ; preds = %66, %62
  %68 = phi i32 [ %65, %62 ], [ 12, %66 ]
  %69 = load ptr, ptr %7, align 8
  %70 = getelementptr inbounds nuw %struct.vars, ptr %69, i32 0, i32 3
  store i32 %68, ptr %70, align 8
  store ptr null, ptr %6, align 8
  store i32 1, ptr %13, align 4
  br label %115

71:                                               ; preds = %51
  %72 = load ptr, ptr %7, align 8
  %73 = getelementptr inbounds nuw %struct.vars, ptr %72, i32 0, i32 18
  %74 = load ptr, ptr %73, align 8
  %75 = load ptr, ptr %12, align 8
  %76 = getelementptr inbounds nuw %struct.subre, ptr %75, i32 0, i32 13
  store ptr %74, ptr %76, align 8
  %77 = load ptr, ptr %12, align 8
  %78 = load ptr, ptr %7, align 8
  %79 = getelementptr inbounds nuw %struct.vars, ptr %78, i32 0, i32 18
  store ptr %77, ptr %79, align 8
  br label %80

80:                                               ; preds = %71, %45
  %81 = load i32, ptr %8, align 4
  %82 = trunc i32 %81 to i8
  %83 = load ptr, ptr %12, align 8
  %84 = getelementptr inbounds nuw %struct.subre, ptr %83, i32 0, i32 0
  store i8 %82, ptr %84, align 8
  %85 = load i32, ptr %9, align 4
  %86 = trunc i32 %85 to i8
  %87 = load ptr, ptr %12, align 8
  %88 = getelementptr inbounds nuw %struct.subre, ptr %87, i32 0, i32 1
  store i8 %86, ptr %88, align 1
  %89 = load ptr, ptr %12, align 8
  %90 = getelementptr inbounds nuw %struct.subre, ptr %89, i32 0, i32 2
  store i8 -1, ptr %90, align 2
  %91 = load ptr, ptr %12, align 8
  %92 = getelementptr inbounds nuw %struct.subre, ptr %91, i32 0, i32 3
  store i32 0, ptr %92, align 4
  %93 = load ptr, ptr %12, align 8
  %94 = getelementptr inbounds nuw %struct.subre, ptr %93, i32 0, i32 4
  store i32 0, ptr %94, align 8
  %95 = load ptr, ptr %12, align 8
  %96 = getelementptr inbounds nuw %struct.subre, ptr %95, i32 0, i32 5
  store i32 0, ptr %96, align 4
  %97 = load ptr, ptr %12, align 8
  %98 = getelementptr inbounds nuw %struct.subre, ptr %97, i32 0, i32 7
  store i16 1, ptr %98, align 2
  %99 = load ptr, ptr %12, align 8
  %100 = getelementptr inbounds nuw %struct.subre, ptr %99, i32 0, i32 6
  store i16 1, ptr %100, align 8
  %101 = load ptr, ptr %12, align 8
  %102 = getelementptr inbounds nuw %struct.subre, ptr %101, i32 0, i32 8
  store ptr null, ptr %102, align 8
  %103 = load ptr, ptr %12, align 8
  %104 = getelementptr inbounds nuw %struct.subre, ptr %103, i32 0, i32 9
  store ptr null, ptr %104, align 8
  %105 = load ptr, ptr %10, align 8
  %106 = load ptr, ptr %12, align 8
  %107 = getelementptr inbounds nuw %struct.subre, ptr %106, i32 0, i32 10
  store ptr %105, ptr %107, align 8
  %108 = load ptr, ptr %11, align 8
  %109 = load ptr, ptr %12, align 8
  %110 = getelementptr inbounds nuw %struct.subre, ptr %109, i32 0, i32 11
  store ptr %108, ptr %110, align 8
  %111 = load ptr, ptr %12, align 8
  %112 = getelementptr inbounds nuw %struct.subre, ptr %111, i32 0, i32 12
  %113 = getelementptr inbounds nuw %struct.cnfa, ptr %112, i32 0, i32 0
  store i32 0, ptr %113, align 8
  %114 = load ptr, ptr %12, align 8
  store ptr %114, ptr %6, align 8
  store i32 1, ptr %13, align 4
  br label %115

115:                                              ; preds = %80, %67, %38
  call void @llvm.lifetime.end.p0(i64 8, ptr %12) #12
  %116 = load ptr, ptr %6, align 8
  ret ptr %116
}