; Function Attrs: nounwind uwtable
define internal fastcc noundef ptr @subre(ptr noundef nonnull captures(none) %0, i32 noundef range(i32 40, 125) %1, i32 noundef %2, ptr noundef %3, ptr noundef %4) unnamed_addr #0 {
  %6 = getelementptr inbounds nuw i8, ptr %0, i64 200
  %7 = load ptr, ptr %6, align 8
  %8 = load ptr, ptr %0, align 8
  %9 = getelementptr inbounds nuw i8, ptr %8, i64 56
  %10 = load ptr, ptr %9, align 8
  %11 = getelementptr inbounds nuw i8, ptr %10, i64 8
  %12 = load ptr, ptr %11, align 8
  %13 = tail call i32 %12() #20
  %.not = icmp eq i32 %13, 0
  br i1 %.not, label %18, label %14

14:                                               ; preds = %5
  %15 = getelementptr inbounds nuw i8, ptr %0, i64 36
  store i32 101, ptr %15, align 4
  %16 = getelementptr inbounds nuw i8, ptr %0, i64 24
  %17 = load i32, ptr %16, align 8
  %.not43 = icmp eq i32 %17, 0
  %spec.select = select i1 %.not43, i32 19, i32 %17
  store i32 %spec.select, ptr %16, align 8
  br label %47

18:                                               ; preds = %5
  %.not41 = icmp eq ptr %7, null
  br i1 %.not41, label %22, label %19

19:                                               ; preds = %18
  %20 = getelementptr inbounds nuw i8, ptr %7, i64 24
  %21 = load ptr, ptr %20, align 8
  store ptr %21, ptr %6, align 8
  br label %33

22:                                               ; preds = %18
  %23 = tail call ptr @palloc_extended(i64 noundef 128, i32 noundef 2) #20
  %24 = icmp eq ptr %23, null
  br i1 %24, label %25, label %29

25:                                               ; preds = %22
  %26 = getelementptr inbounds nuw i8, ptr %0, i64 36
  store i32 101, ptr %26, align 4
  %27 = getelementptr inbounds nuw i8, ptr %0, i64 24
  %28 = load i32, ptr %27, align 8
  %.not42 = icmp eq i32 %28, 0
  %spec.select44 = select i1 %.not42, i32 12, i32 %28
  store i32 %spec.select44, ptr %27, align 8
  br label %47

29:                                               ; preds = %22
  %30 = getelementptr inbounds nuw i8, ptr %0, i64 192
  %31 = load ptr, ptr %30, align 8
  %32 = getelementptr inbounds nuw i8, ptr %23, i64 120
  store ptr %31, ptr %32, align 8
  store ptr %23, ptr %30, align 8
  br label %33

33:                                               ; preds = %29, %19
  %.0 = phi ptr [ %7, %19 ], [ %23, %29 ]
  %34 = trunc nuw nsw i32 %1 to i8
  store i8 %34, ptr %.0, align 8
  %35 = trunc i32 %2 to i8
  %36 = getelementptr inbounds nuw i8, ptr %.0, i64 1
  store i8 %35, ptr %36, align 1
  %37 = getelementptr inbounds nuw i8, ptr %.0, i64 2
  store i8 -1, ptr %37, align 2
  %38 = getelementptr inbounds nuw i8, ptr %.0, i64 4
  store i32 0, ptr %38, align 4
  %39 = getelementptr inbounds nuw i8, ptr %.0, i64 8
  store i32 0, ptr %39, align 8
  %40 = getelementptr inbounds nuw i8, ptr %.0, i64 12
  store i32 0, ptr %40, align 4
  %41 = getelementptr inbounds nuw i8, ptr %.0, i64 18
  store i16 1, ptr %41, align 2
  %42 = getelementptr inbounds nuw i8, ptr %.0, i64 16
  store i16 1, ptr %42, align 8
  %43 = getelementptr inbounds nuw i8, ptr %.0, i64 24
  %44 = getelementptr inbounds nuw i8, ptr %.0, i64 40
  tail call void @llvm.memset.p0.i64(ptr noundef nonnull align 8 dereferenceable(16) %43, i8 0, i64 16, i1 false)
  store ptr %3, ptr %44, align 8
  %45 = getelementptr inbounds nuw i8, ptr %.0, i64 48
  store ptr %4, ptr %45, align 8
  %46 = getelementptr inbounds nuw i8, ptr %.0, i64 56
  store i32 0, ptr %46, align 8
  br label %47

47:                                               ; preds = %33, %25, %14
  %.036 = phi ptr [ null, %14 ], [ %.0, %33 ], [ null, %25 ]
  ret ptr %.036
}